; Function Attrs: nounwind uwtable
define noundef ptr @ggml_map_custom2_inplace_f32(ptr noundef captures(none) %0, ptr noundef %1, ptr noundef %2, ptr noundef %3) local_unnamed_addr #4 {
  %5 = load i32, ptr %1, align 8, !tbaa !40
  %6 = getelementptr inbounds nuw i8, ptr %1, i64 16
  %7 = tail call fastcc ptr @ggml_new_tensor_impl(ptr noundef %0, i32 noundef %5, i32 noundef 4, ptr noundef nonnull %6, ptr noundef nonnull %1, i64 noundef 0)
  %8 = getelementptr inbounds nuw i8, ptr %1, i64 256
  %9 = tail call ptr (ptr, ptr, ...) @ggml_format_name(ptr noundef %7, ptr noundef nonnull @.str.23, ptr noundef nonnull %8)
  %10 = getelementptr inbounds nuw i8, ptr %1, i64 48
  %11 = getelementptr inbounds nuw i8, ptr %7, i64 48
  br label %12

12:                                               ; preds = %12, %4
  %indvars.iv.i.i = phi i64 [ 0, %4 ], [ %indvars.iv.next.i.i, %12 ]
  %13 = getelementptr inbounds nuw [4 x i64], ptr %10, i64 0, i64 %indvars.iv.i.i
  %14 = load i64, ptr %13, align 8, !tbaa !39
  %15 = getelementptr inbounds nuw [4 x i64], ptr %11, i64 0, i64 %indvars.iv.i.i
  store i64 %14, ptr %15, align 8, !tbaa !39
  %indvars.iv.next.i.i = add nuw nsw i64 %indvars.iv.i.i, 1
  %exitcond.not.i.i = icmp eq i64 %indvars.iv.next.i.i, 4
  br i1 %exitcond.not.i.i, label %ggml_map_custom2_impl_f32.exit, label %12, !llvm.loop !86

ggml_map_custom2_impl_f32.exit:                   ; preds = %12
  %16 = getelementptr inbounds nuw i8, ptr %7, i64 84
  store ptr %3, ptr %16, align 4
  %17 = getelementptr inbounds nuw i8, ptr %7, i64 80
  store i32 75, ptr %17, align 8, !tbaa !55
  %18 = getelementptr inbounds nuw i8, ptr %7, i64 152
  store ptr %1, ptr %18, align 8, !tbaa !81
  %19 = getelementptr inbounds nuw i8, ptr %7, i64 160
  store ptr %2, ptr %19, align 8, !tbaa !81
  ret ptr %7
}